; Function Attrs: mustprogress nounwind uwtable
define hidden void @_ZN4cvc58internal4prop24ProofPostprocessCallback16initializeUpdateEv(ptr noundef nonnull align 8 dereferenceable(80) %this) local_unnamed_addr #4 align 2 personality ptr @__gxx_personality_v0 {
entry:
  %d_assumpToProof = getelementptr inbounds i8, ptr %this, i64 32
  %_M_parent.i.i.i.i = getelementptr inbounds i8, ptr %this, i64 48
  %0 = load ptr, ptr %_M_parent.i.i.i.i, align 8
  invoke void @_ZNSt8_Rb_treeIN4cvc58internal12NodeTemplateILb1EEESt4pairIKS3_St10shared_ptrINS1_9ProofNodeEEESt10_Select1stIS9_ESt4lessIS3_ESaIS9_EE8_M_eraseEPSt13_Rb_tree_nodeIS9_E(ptr noundef nonnull align 8 dereferenceable(48) %d_assumpToProof, ptr noundef %0)
          to label %_ZNSt3mapIN4cvc58internal12NodeTemplateILb1EEESt10shared_ptrINS1_9ProofNodeEESt4lessIS3_ESaISt4pairIKS3_S6_EEE5clearEv.exit unwind label %terminate.lpad.i.i

terminate.lpad.i.i:                               ; preds = %entry
  %1 = landingpad { ptr, i32 }
          catch ptr null
  %2 = extractvalue { ptr, i32 } %1, 0
  tail call void @__clang_call_terminate(ptr %2) #13
  unreachable

_ZNSt3mapIN4cvc58internal12NodeTemplateILb1EEESt10shared_ptrINS1_9ProofNodeEESt4lessIS3_ESaISt4pairIKS3_S6_EEE5clearEv.exit: ; preds = %entry
  %add.ptr.i.i = getelementptr inbounds i8, ptr %this, i64 40
  store ptr null, ptr %_M_parent.i.i.i.i, align 8
  %_M_left.i.i.i = getelementptr inbounds i8, ptr %this, i64 56
  store ptr %add.ptr.i.i, ptr %_M_left.i.i.i, align 8
  %_M_right.i.i.i = getelementptr inbounds i8, ptr %this, i64 64
  store ptr %add.ptr.i.i, ptr %_M_right.i.i.i, align 8
  %_M_node_count.i.i.i = getelementptr inbounds i8, ptr %this, i64 72
  store i64 0, ptr %_M_node_count.i.i.i, align 8
  ret void
}